target datalayout = "e-m:e-p270:32:32-p271:32:32-p272:64:64-i64:64-i128:128-f80:128-n8:16:32:64-S128"
target triple = "x86_64-pc-linux-gnu"

@.str = private unnamed_addr constant [48 x i8] c"conjugate_gradient: unexpected length 0 vector\0A\00", align 1
@stderr = external global ptr, align 8
@.str.1 = private unnamed_addr constant [58 x i8] c"integer overflow when trying to allocate %zu * %zu bytes\0A\00", align 1
@.str.2 = private unnamed_addr constant [49 x i8] c"out of memory when trying to allocate %zu bytes\0A\00", align 1

; Function Attrs: inlinehint nounwind uwtable
define internal ptr @gv_calloc(i64 noundef %0, i64 noundef %1) #2 {
  %3 = alloca i64, align 8
  %4 = alloca i64, align 8
  %5 = alloca ptr, align 8
  store i64 %0, ptr %3, align 8, !tbaa !15
  store i64 %1, ptr %4, align 8, !tbaa !15
  %6 = load i64, ptr %3, align 8, !tbaa !15
  %7 = icmp ugt i64 %6, 0
  br i1 %7, label %8, label %18

8:                                                ; preds = %2
  %9 = load i64, ptr %3, align 8, !tbaa !15
  %10 = udiv i64 -1, %9
  %11 = load i64, ptr %4, align 8, !tbaa !15
  %12 = icmp ult i64 %10, %11
  br i1 %12, label %13, label %18

13:                                               ; preds = %8
  %14 = load ptr, ptr @stderr, align 8, !tbaa !17
  %15 = load i64, ptr %3, align 8, !tbaa !15
  %16 = load i64, ptr %4, align 8, !tbaa !15
  %17 = call i32 (ptr, ptr, ...) @fprintf(ptr noundef %14, ptr noundef @.str.1, i64 noundef %15, i64 noundef %16) #9
  call void @graphviz_exit(i32 noundef 1) #10
  unreachable

18:                                               ; preds = %8, %2
  call void @llvm.lifetime.start.p0(i64 8, ptr %5) #9
  %19 = load i64, ptr %3, align 8, !tbaa !15
  %20 = load i64, ptr %4, align 8, !tbaa !15
  %21 = call noalias ptr @calloc(i64 noundef %19, i64 noundef %20) #11
  store ptr %21, ptr %5, align 8, !tbaa !3
  %22 = load i64, ptr %3, align 8, !tbaa !15
  %23 = icmp ugt i64 %22, 0
  br i1 %23, label %24, label %36

24:                                               ; preds = %18
  %25 = load i64, ptr %4, align 8, !tbaa !15
  %26 = icmp ugt i64 %25, 0
  br i1 %26, label %27, label %36

27:                                               ; preds = %24
  %28 = load ptr, ptr %5, align 8, !tbaa !3
  %29 = icmp eq ptr %28, null
  br i1 %29, label %30, label %36

30:                                               ; preds = %27
  %31 = load ptr, ptr @stderr, align 8, !tbaa !17
  %32 = load i64, ptr %3, align 8, !tbaa !15
  %33 = load i64, ptr %4, align 8, !tbaa !15
  %34 = mul i64 %32, %33
  %35 = call i32 (ptr, ptr, ...) @fprintf(ptr noundef %31, ptr noundef @.str.2, i64 noundef %34) #9
  call void @graphviz_exit(i32 noundef 1) #10
  unreachable

36:                                               ; preds = %27, %24, %18
  %37 = load ptr, ptr %5, align 8, !tbaa !3
  call void @llvm.lifetime.end.p0(i64 8, ptr %5) #9
  ret ptr %37
}

; Function Attrs: nounwind uwtable
define i32 @conjugate_gradient(ptr noundef %0, ptr noundef %1, ptr noundef %2, i32 noundef %3, double noundef %4, i32 noundef %5) #0 {
  %7 = alloca ptr, align 8
  %8 = alloca ptr, align 8
  %9 = alloca ptr, align 8
  %10 = alloca i32, align 4
  %11 = alloca double, align 8
  %12 = alloca i32, align 4
  %13 = alloca i32, align 4
  %14 = alloca i32, align 4
  %15 = alloca double, align 8
  %16 = alloca double, align 8
  %17 = alloca double, align 8
  %18 = alloca double, align 8
  %19 = alloca double, align 8
  %20 = alloca ptr, align 8
  %21 = alloca ptr, align 8
  %22 = alloca ptr, align 8
  %23 = alloca ptr, align 8
  %24 = alloca ptr, align 8
  %25 = alloca ptr, align 8
  store ptr %0, ptr %7, align 8, !tbaa !3
  store ptr %1, ptr %8, align 8, !tbaa !7
  store ptr %2, ptr %9, align 8, !tbaa !7
  store i32 %3, ptr %10, align 4, !tbaa !9
  store double %4, ptr %11, align 8, !tbaa !11
  store i32 %5, ptr %12, align 4, !tbaa !9
  call void @llvm.lifetime.start.p0(i64 4, ptr %13) #9
  call void @llvm.lifetime.start.p0(i64 4, ptr %14) #9
  store i32 0, ptr %14, align 4, !tbaa !9
  call void @llvm.lifetime.start.p0(i64 8, ptr %15) #9
  call void @llvm.lifetime.start.p0(i64 8, ptr %16) #9
  call void @llvm.lifetime.start.p0(i64 8, ptr %17) #9
  call void @llvm.lifetime.start.p0(i64 8, ptr %18) #9
  call void @llvm.lifetime.start.p0(i64 8, ptr %19) #9
  call void @llvm.lifetime.start.p0(i64 8, ptr %20) #9
  %26 = load i32, ptr %10, align 4, !tbaa !9
  %27 = sext i32 %26 to i64
  %28 = call ptr @gv_calloc(i64 noundef %27, i64 noundef 8)
  store ptr %28, ptr %20, align 8, !tbaa !7
  call void @llvm.lifetime.start.p0(i64 8, ptr %21) #9
  %29 = load i32, ptr %10, align 4, !tbaa !9
  %30 = sext i32 %29 to i64
  %31 = call ptr @gv_calloc(i64 noundef %30, i64 noundef 8)
  store ptr %31, ptr %21, align 8, !tbaa !7
  call void @llvm.lifetime.start.p0(i64 8, ptr %22) #9
  %32 = load i32, ptr %10, align 4, !tbaa !9
  %33 = sext i32 %32 to i64
  %34 = call ptr @gv_calloc(i64 noundef %33, i64 noundef 8)
  store ptr %34, ptr %22, align 8, !tbaa !7
  call void @llvm.lifetime.start.p0(i64 8, ptr %23) #9
  %35 = load i32, ptr %10, align 4, !tbaa !9
  %36 = sext i32 %35 to i64
  %37 = call ptr @gv_calloc(i64 noundef %36, i64 noundef 8)
  store ptr %37, ptr %23, align 8, !tbaa !7
  call void @llvm.lifetime.start.p0(i64 8, ptr %24) #9
  %38 = load i32, ptr %10, align 4, !tbaa !9
  %39 = sext i32 %38 to i64
  %40 = call ptr @gv_calloc(i64 noundef %39, i64 noundef 8)
  store ptr %40, ptr %24, align 8, !tbaa !7
  call void @llvm.lifetime.start.p0(i64 8, ptr %25) #9
  %41 = load i32, ptr %10, align 4, !tbaa !9
  %42 = sext i32 %41 to i64
  %43 = call ptr @gv_calloc(i64 noundef %42, i64 noundef 8)
  store ptr %43, ptr %25, align 8, !tbaa !7
  %44 = load i32, ptr %10, align 4, !tbaa !9
  %45 = load ptr, ptr %9, align 8, !tbaa !7
  %46 = load ptr, ptr %25, align 8, !tbaa !7
  call void @copy_vector(i32 noundef %44, ptr noundef %45, ptr noundef %46)
  %47 = load i32, ptr %10, align 4, !tbaa !9
  %48 = load ptr, ptr %25, align 8, !tbaa !7
  call void @orthog1(i32 noundef %47, ptr noundef %48)
  %49 = load i32, ptr %10, align 4, !tbaa !9
  %50 = load ptr, ptr %8, align 8, !tbaa !7
  call void @orthog1(i32 noundef %49, ptr noundef %50)
  %51 = load ptr, ptr %7, align 8, !tbaa !3
  %52 = load i32, ptr %10, align 4, !tbaa !9
  %53 = load ptr, ptr %8, align 8, !tbaa !7
  %54 = load ptr, ptr %23, align 8, !tbaa !7
  call void @right_mult_with_vector(ptr noundef %51, i32 noundef %52, ptr noundef %53, ptr noundef %54)
  %55 = load i32, ptr %10, align 4, !tbaa !9
  %56 = load ptr, ptr %25, align 8, !tbaa !7
  %57 = load ptr, ptr %23, align 8, !tbaa !7
  %58 = load ptr, ptr %20, align 8, !tbaa !7
  call void @vectors_subtraction(i32 noundef %55, ptr noundef %56, ptr noundef %57, ptr noundef %58)
  %59 = load i32, ptr %10, align 4, !tbaa !9
  %60 = load ptr, ptr %20, align 8, !tbaa !7
  %61 = load ptr, ptr %21, align 8, !tbaa !7
  call void @copy_vector(i32 noundef %59, ptr noundef %60, ptr noundef %61)
  %62 = load i32, ptr %10, align 4, !tbaa !9
  %63 = load ptr, ptr %20, align 8, !tbaa !7
  %64 = load ptr, ptr %20, align 8, !tbaa !7
  %65 = call double @vectors_inner_product(i32 noundef %62, ptr noundef %63, ptr noundef %64)
  store double %65, ptr %17, align 8, !tbaa !11
  store i32 0, ptr %13, align 4, !tbaa !9
  br label %66

66:                                               ; preds = %136, %6
  %67 = load i32, ptr %13, align 4, !tbaa !9
  %68 = load i32, ptr %12, align 4, !tbaa !9
  %69 = icmp slt i32 %67, %68
  br i1 %69, label %70, label %76

70:                                               ; preds = %66
  %71 = load i32, ptr %10, align 4, !tbaa !9
  %72 = load ptr, ptr %20, align 8, !tbaa !7
  %73 = call double @max_abs(i32 noundef %71, ptr noundef %72)
  %74 = load double, ptr %11, align 8, !tbaa !11
  %75 = fcmp ogt double %73, %74
  br label %76

76:                                               ; preds = %70, %66
  %77 = phi i1 [ false, %66 ], [ %75, %70 ]
  br i1 %77, label %78, label %139

78:                                               ; preds = %76
  %79 = load ptr, ptr %7, align 8, !tbaa !3
  %80 = load i32, ptr %10, align 4, !tbaa !9
  %81 = load ptr, ptr %21, align 8, !tbaa !7
  %82 = load ptr, ptr %22, align 8, !tbaa !7
  call void @right_mult_with_vector(ptr noundef %79, i32 noundef %80, ptr noundef %81, ptr noundef %82)
  %83 = load i32, ptr %10, align 4, !tbaa !9
  %84 = load ptr, ptr %21, align 8, !tbaa !7
  %85 = load ptr, ptr %22, align 8, !tbaa !7
  %86 = call double @vectors_inner_product(i32 noundef %83, ptr noundef %84, ptr noundef %85)
  store double %86, ptr %19, align 8, !tbaa !11
  %87 = load double, ptr %19, align 8, !tbaa !11
  %88 = fcmp oeq double %87, 0.000000e+00
  br i1 %88, label %89, label %90

89:                                               ; preds = %78
  br label %139

90:                                               ; preds = %78
  %91 = load double, ptr %17, align 8, !tbaa !11
  %92 = load double, ptr %19, align 8, !tbaa !11
  %93 = fdiv double %91, %92
  store double %93, ptr %15, align 8, !tbaa !11
  %94 = load i32, ptr %10, align 4, !tbaa !9
  %95 = load ptr, ptr %21, align 8, !tbaa !7
  %96 = load double, ptr %15, align 8, !tbaa !11
  %97 = load ptr, ptr %24, align 8, !tbaa !7
  call void @vectors_scalar_mult(i32 noundef %94, ptr noundef %95, double noundef %96, ptr noundef %97)
  %98 = load i32, ptr %10, align 4, !tbaa !9
  %99 = load ptr, ptr %8, align 8, !tbaa !7
  %100 = load ptr, ptr %24, align 8, !tbaa !7
  %101 = load ptr, ptr %8, align 8, !tbaa !7
  call void @vectors_addition(i32 noundef %98, ptr noundef %99, ptr noundef %100, ptr noundef %101)
  %102 = load i32, ptr %13, align 4, !tbaa !9
  %103 = load i32, ptr %12, align 4, !tbaa !9
  %104 = sub nsw i32 %103, 1
  %105 = icmp slt i32 %102, %104
  br i1 %105, label %106, label %135

106:                                              ; preds = %90
  %107 = load i32, ptr %10, align 4, !tbaa !9
  %108 = load ptr, ptr %22, align 8, !tbaa !7
  %109 = load double, ptr %15, align 8, !tbaa !11
  %110 = load ptr, ptr %22, align 8, !tbaa !7
  call void @vectors_scalar_mult(i32 noundef %107, ptr noundef %108, double noundef %109, ptr noundef %110)
  %111 = load i32, ptr %10, align 4, !tbaa !9
  %112 = load ptr, ptr %20, align 8, !tbaa !7
  %113 = load ptr, ptr %22, align 8, !tbaa !7
  %114 = load ptr, ptr %20, align 8, !tbaa !7
  call void @vectors_subtraction(i32 noundef %111, ptr noundef %112, ptr noundef %113, ptr noundef %114)
  %115 = load i32, ptr %10, align 4, !tbaa !9
  %116 = load ptr, ptr %20, align 8, !tbaa !7
  %117 = load ptr, ptr %20, align 8, !tbaa !7
  %118 = call double @vectors_inner_product(i32 noundef %115, ptr noundef %116, ptr noundef %117)
  store double %118, ptr %18, align 8, !tbaa !11
  %119 = load double, ptr %17, align 8, !tbaa !11
  %120 = fcmp oeq double %119, 0.000000e+00
  br i1 %120, label %121, label %122

121:                                              ; preds = %106
  call void (ptr, ...) @agerrorf(ptr noundef @.str)
  store i32 1, ptr %14, align 4, !tbaa !9
  br label %140

122:                                              ; preds = %106
  %123 = load double, ptr %18, align 8, !tbaa !11
  %124 = load double, ptr %17, align 8, !tbaa !11
  %125 = fdiv double %123, %124
  store double %125, ptr %16, align 8, !tbaa !11
  %126 = load double, ptr %18, align 8, !tbaa !11
  store double %126, ptr %17, align 8, !tbaa !11
  %127 = load i32, ptr %10, align 4, !tbaa !9
  %128 = load ptr, ptr %21, align 8, !tbaa !7
  %129 = load double, ptr %16, align 8, !tbaa !11
  %130 = load ptr, ptr %21, align 8, !tbaa !7
  call void @vectors_scalar_mult(i32 noundef %127, ptr noundef %128, double noundef %129, ptr noundef %130)
  %131 = load i32, ptr %10, align 4, !tbaa !9
  %132 = load ptr, ptr %20, align 8, !tbaa !7
  %133 = load ptr, ptr %21, align 8, !tbaa !7
  %134 = load ptr, ptr %21, align 8, !tbaa !7
  call void @vectors_addition(i32 noundef %131, ptr noundef %132, ptr noundef %133, ptr noundef %134)
  br label %135

135:                                              ; preds = %122, %90
  br label %136

136:                                              ; preds = %135
  %137 = load i32, ptr %13, align 4, !tbaa !9
  %138 = add nsw i32 %137, 1
  store i32 %138, ptr %13, align 4, !tbaa !9
  br label %66, !llvm.loop !13

139:                                              ; preds = %89, %76
  br label %140

140:                                              ; preds = %139, %121
  %141 = load ptr, ptr %20, align 8, !tbaa !7
  call void @free(ptr noundef %141) #9
  %142 = load ptr, ptr %21, align 8, !tbaa !7
  call void @free(ptr noundef %142) #9
  %143 = load ptr, ptr %22, align 8, !tbaa !7
  call void @free(ptr noundef %143) #9
  %144 = load ptr, ptr %23, align 8, !tbaa !7
  call void @free(ptr noundef %144) #9
  %145 = load ptr, ptr %24, align 8, !tbaa !7
  call void @free(ptr noundef %145) #9
  %146 = load ptr, ptr %25, align 8, !tbaa !7
  call void @free(ptr noundef %146) #9
  %147 = load i32, ptr %14, align 4, !tbaa !9
  call void @llvm.lifetime.end.p0(i64 8, ptr %25) #9
  call void @llvm.lifetime.end.p0(i64 8, ptr %24) #9
  call void @llvm.lifetime.end.p0(i64 8, ptr %23) #9
  call void @llvm.lifetime.end.p0(i64 8, ptr %22) #9
  call void @llvm.lifetime.end.p0(i64 8, ptr %21) #9
  call void @llvm.lifetime.end.p0(i64 8, ptr %20) #9
  call void @llvm.lifetime.end.p0(i64 8, ptr %19) #9
  call void @llvm.lifetime.end.p0(i64 8, ptr %18) #9
  call void @llvm.lifetime.end.p0(i64 8, ptr %17) #9
  call void @llvm.lifetime.end.p0(i64 8, ptr %16) #9
  call void @llvm.lifetime.end.p0(i64 8, ptr %15) #9
  call void @llvm.lifetime.end.p0(i64 4, ptr %14) #9
  call void @llvm.lifetime.end.p0(i64 4, ptr %13) #9
  ret i32 %147
}