; Function Attrs: nounwind uwtable
define range(i32 0, 2) i32 @conjugate_gradient(ptr noundef %0, ptr noundef %1, ptr noundef %2, i32 noundef %3, double noundef %4, i32 noundef %5) local_unnamed_addr #0 {
  %7 = sext i32 %3 to i64
  %.not.i = icmp eq i32 %3, 0
  br i1 %.not.i, label %.thread.i109, label %8

8:                                                ; preds = %6
  %mul.ov.i = icmp slt i32 %3, 0
  br i1 %mul.ov.i, label %9, label %12

9:                                                ; preds = %8
  %10 = load ptr, ptr @stderr, align 8, !tbaa !3
  %11 = tail call i32 (ptr, ptr, ...) @fprintf(ptr noundef %10, ptr noundef nonnull @.str.1, i64 noundef range(i64 -2147483648, 2147483648) %7, i64 noundef 8) #8
  tail call fastcc void @graphviz_exit() #9
  unreachable

12:                                               ; preds = %8
  %13 = tail call noalias ptr @calloc(i64 noundef range(i64 -2147483648, 2147483648) %7, i64 noundef 8) #10
  %14 = icmp eq ptr %13, null
  br i1 %14, label %15, label %gv_calloc.exit

15:                                               ; preds = %12
  %16 = load ptr, ptr @stderr, align 8, !tbaa !3
  %17 = shl nuw nsw i64 %7, 3
  %18 = tail call i32 (ptr, ptr, ...) @fprintf(ptr noundef %16, ptr noundef nonnull @.str.2, i64 noundef %17) #8
  tail call fastcc void @graphviz_exit() #9
  unreachable

gv_calloc.exit:                                   ; preds = %12
  %19 = tail call noalias ptr @calloc(i64 noundef range(i64 -2147483648, 2147483648) %7, i64 noundef 8) #10
  %20 = icmp eq ptr %19, null
  br i1 %20, label %21, label %gv_calloc.exit90

21:                                               ; preds = %gv_calloc.exit
  %22 = load ptr, ptr @stderr, align 8, !tbaa !3
  %23 = shl nuw nsw i64 %7, 3
  %24 = tail call i32 (ptr, ptr, ...) @fprintf(ptr noundef %22, ptr noundef nonnull @.str.2, i64 noundef %23) #8
  tail call fastcc void @graphviz_exit() #9
  unreachable

gv_calloc.exit90:                                 ; preds = %gv_calloc.exit
  %25 = tail call noalias ptr @calloc(i64 noundef range(i64 -2147483648, 2147483648) %7, i64 noundef 8) #10
  %26 = icmp eq ptr %25, null
  br i1 %26, label %27, label %gv_calloc.exit95

27:                                               ; preds = %gv_calloc.exit90
  %28 = load ptr, ptr @stderr, align 8, !tbaa !3
  %29 = shl nuw nsw i64 %7, 3
  %30 = tail call i32 (ptr, ptr, ...) @fprintf(ptr noundef %28, ptr noundef nonnull @.str.2, i64 noundef %29) #8
  tail call fastcc void @graphviz_exit() #9
  unreachable

gv_calloc.exit95:                                 ; preds = %gv_calloc.exit90
  %31 = tail call noalias ptr @calloc(i64 noundef range(i64 -2147483648, 2147483648) %7, i64 noundef 8) #10
  %32 = icmp eq ptr %31, null
  br i1 %32, label %33, label %gv_calloc.exit100

33:                                               ; preds = %gv_calloc.exit95
  %34 = load ptr, ptr @stderr, align 8, !tbaa !3
  %35 = shl nuw nsw i64 %7, 3
  %36 = tail call i32 (ptr, ptr, ...) @fprintf(ptr noundef %34, ptr noundef nonnull @.str.2, i64 noundef %35) #8
  tail call fastcc void @graphviz_exit() #9
  unreachable

gv_calloc.exit100:                                ; preds = %gv_calloc.exit95
  %37 = tail call noalias ptr @calloc(i64 noundef range(i64 -2147483648, 2147483648) %7, i64 noundef 8) #10
  %38 = icmp eq ptr %37, null
  br i1 %38, label %39, label %gv_calloc.exit105

39:                                               ; preds = %gv_calloc.exit100
  %40 = load ptr, ptr @stderr, align 8, !tbaa !3
  %41 = shl nuw nsw i64 %7, 3
  %42 = tail call i32 (ptr, ptr, ...) @fprintf(ptr noundef %40, ptr noundef nonnull @.str.2, i64 noundef %41) #8
  tail call fastcc void @graphviz_exit() #9
  unreachable

.thread.i109:                                     ; preds = %6
  %43 = tail call noalias ptr @calloc(i64 noundef 0, i64 noundef 8) #10
  %44 = tail call noalias ptr @calloc(i64 noundef 0, i64 noundef 8) #10
  %45 = tail call noalias ptr @calloc(i64 noundef 0, i64 noundef 8) #10
  %46 = tail call noalias ptr @calloc(i64 noundef 0, i64 noundef 8) #10
  %47 = tail call noalias ptr @calloc(i64 noundef 0, i64 noundef 8) #10
  %48 = tail call noalias ptr @calloc(i64 noundef 0, i64 noundef 8) #10
  br label %gv_calloc.exit110

gv_calloc.exit105:                                ; preds = %gv_calloc.exit100
  %49 = tail call noalias ptr @calloc(i64 noundef range(i64 -2147483648, 2147483648) %7, i64 noundef 8) #10
  %50 = icmp eq ptr %49, null
  br i1 %50, label %51, label %gv_calloc.exit110

51:                                               ; preds = %gv_calloc.exit105
  %52 = load ptr, ptr @stderr, align 8, !tbaa !3
  %53 = shl nuw nsw i64 %7, 3
  %54 = tail call i32 (ptr, ptr, ...) @fprintf(ptr noundef %52, ptr noundef nonnull @.str.2, i64 noundef %53) #8
  tail call fastcc void @graphviz_exit() #9
  unreachable

gv_calloc.exit110:                                ; preds = %.thread.i109, %gv_calloc.exit105
  %55 = phi ptr [ %47, %.thread.i109 ], [ %37, %gv_calloc.exit105 ]
  %56 = phi ptr [ %45, %.thread.i109 ], [ %25, %gv_calloc.exit105 ]
  %57 = phi ptr [ %43, %.thread.i109 ], [ %13, %gv_calloc.exit105 ]
  %58 = phi ptr [ %44, %.thread.i109 ], [ %19, %gv_calloc.exit105 ]
  %59 = phi ptr [ %46, %.thread.i109 ], [ %31, %gv_calloc.exit105 ]
  %60 = phi ptr [ %48, %.thread.i109 ], [ %49, %gv_calloc.exit105 ]
  tail call void @copy_vector(i32 noundef %3, ptr noundef %2, ptr noundef %60) #11
  tail call void @orthog1(i32 noundef %3, ptr noundef %60) #11
  tail call void @orthog1(i32 noundef %3, ptr noundef %1) #11
  tail call void @right_mult_with_vector(ptr noundef %0, i32 noundef %3, ptr noundef %1, ptr noundef %59) #11
  tail call void @vectors_subtraction(i32 noundef %3, ptr noundef %60, ptr noundef %59, ptr noundef %57) #11
  tail call void @copy_vector(i32 noundef %3, ptr noundef %57, ptr noundef %58) #11
  %61 = tail call double @vectors_inner_product(i32 noundef %3, ptr noundef %57, ptr noundef %57) #11
  %62 = icmp sgt i32 %5, 0
  br i1 %62, label %.lr.ph, label %.critedge

.lr.ph:                                           ; preds = %gv_calloc.exit110
  %63 = add nsw i32 %5, -1
  br label %64

64:                                               ; preds = %.lr.ph, %79
  %.0117 = phi i32 [ 0, %.lr.ph ], [ %80, %79 ]
  %.083116 = phi double [ %61, %.lr.ph ], [ %.1, %79 ]
  %65 = tail call double @max_abs(i32 noundef %3, ptr noundef %57) #11
  %66 = fcmp ogt double %65, %4
  br i1 %66, label %67, label %.critedge

67:                                               ; preds = %64
  tail call void @right_mult_with_vector(ptr noundef %0, i32 noundef %3, ptr noundef %58, ptr noundef %56) #11
  %68 = tail call double @vectors_inner_product(i32 noundef %3, ptr noundef %58, ptr noundef %56) #11
  %69 = fcmp oeq double %68, 0.000000e+00
  br i1 %69, label %.critedge, label %70

70:                                               ; preds = %67
  %71 = fdiv double %.083116, %68
  tail call void @vectors_scalar_mult(i32 noundef %3, ptr noundef %58, double noundef %71, ptr noundef %55) #11
  tail call void @vectors_addition(i32 noundef %3, ptr noundef %1, ptr noundef %55, ptr noundef %1) #11
  %72 = icmp slt i32 %.0117, %63
  br i1 %72, label %73, label %79

73:                                               ; preds = %70
  tail call void @vectors_scalar_mult(i32 noundef %3, ptr noundef %56, double noundef %71, ptr noundef %56) #11
  tail call void @vectors_subtraction(i32 noundef %3, ptr noundef %57, ptr noundef %56, ptr noundef %57) #11
  %74 = tail call double @vectors_inner_product(i32 noundef %3, ptr noundef %57, ptr noundef %57) #11
  %75 = fcmp oeq double %.083116, 0.000000e+00
  br i1 %75, label %76, label %77

76:                                               ; preds = %73
  tail call void (ptr, ...) @agerrorf(ptr noundef nonnull @.str) #11
  br label %.critedge

77:                                               ; preds = %73
  %78 = fdiv double %74, %.083116
  tail call void @vectors_scalar_mult(i32 noundef %3, ptr noundef %58, double noundef %78, ptr noundef %58) #11
  tail call void @vectors_addition(i32 noundef %3, ptr noundef %57, ptr noundef %58, ptr noundef %58) #11
  br label %79

79:                                               ; preds = %70, %77
  %.1 = phi double [ %74, %77 ], [ %.083116, %70 ]
  %80 = add nuw nsw i32 %.0117, 1
  %exitcond.not = icmp eq i32 %80, %5
  br i1 %exitcond.not, label %.critedge, label %64, !llvm.loop !8

.critedge:                                        ; preds = %79, %67, %64, %gv_calloc.exit110, %76
  %.082 = phi i32 [ 1, %76 ], [ 0, %gv_calloc.exit110 ], [ 0, %64 ], [ 0, %67 ], [ 0, %79 ]
  tail call void @free(ptr noundef %57) #11
  tail call void @free(ptr noundef %58) #11
  tail call void @free(ptr noundef %56) #11
  tail call void @free(ptr noundef %59) #11
  tail call void @free(ptr noundef %55) #11
  tail call void @free(ptr noundef %60) #11
  ret i32 %.082
}